; Function Attrs: mustprogress nofree norecurse nosync nounwind willreturn memory(read, inaccessiblemem: none) uwtable
define hidden noundef ptr @_ZNK15fieldDescriptor16type_annotationsEv(ptr nocapture noundef nonnull readonly align 8 dereferenceable(48) %0) local_unnamed_addr #0 align 2 {
  %2 = getelementptr inbounds i8, ptr %0, i64 32
  %3 = load ptr, ptr %2, align 8
  %4 = getelementptr inbounds i8, ptr %3, i64 24
  %5 = load ptr, ptr %4, align 8
  %6 = getelementptr inbounds i8, ptr %5, i64 200
  %7 = load ptr, ptr %6, align 8
  %.not.i = icmp eq ptr %7, null
  br i1 %.not.i, label %_ZNK13InstanceKlass23fields_type_annotationsEv.exit.thread, label %_ZNK13InstanceKlass23fields_type_annotationsEv.exit

_ZNK13InstanceKlass23fields_type_annotationsEv.exit: ; preds = %1
  %8 = getelementptr inbounds i8, ptr %7, i64 24
  %9 = load ptr, ptr %8, align 8
  %10 = icmp eq ptr %9, null
  br i1 %10, label %_ZNK13InstanceKlass23fields_type_annotationsEv.exit.thread, label %11

11:                                               ; preds = %_ZNK13InstanceKlass23fields_type_annotationsEv.exit
  %12 = load i32, ptr %0, align 8
  %13 = getelementptr inbounds i8, ptr %9, i64 8
  %14 = sext i32 %12 to i64
  %15 = getelementptr inbounds ptr, ptr %13, i64 %14
  %16 = load ptr, ptr %15, align 8
  br label %_ZNK13InstanceKlass23fields_type_annotationsEv.exit.thread

_ZNK13InstanceKlass23fields_type_annotationsEv.exit.thread: ; preds = %1, %_ZNK13InstanceKlass23fields_type_annotationsEv.exit, %11
  %.0 = phi ptr [ %16, %11 ], [ null, %_ZNK13InstanceKlass23fields_type_annotationsEv.exit ], [ null, %1 ]
  ret ptr %.0
}